; Function Attrs: mustprogress nounwind uwtable
define dso_local void @_ZN4llvm24RISCVMachineFunctionInfo17addSExt32RegisterENS_8RegisterE(ptr noundef nonnull align 8 dereferenceable(124) %0, i32 %1) local_unnamed_addr #1 align 2 {
  %3 = getelementptr inbounds nuw i8, ptr %0, i64 64
  %4 = tail call noundef i64 @_ZNK4llvm15SmallVectorBaseIjE4sizeEv(ptr noundef nonnull align 8 dereferenceable(16) %3) #10
  %5 = add i64 %4, 1
  %6 = tail call noundef i64 @_ZNK4llvm15SmallVectorBaseIjE8capacityEv(ptr noundef nonnull align 8 dereferenceable(16) %3) #10
  %.not.i.i.i = icmp ugt i64 %5, %6
  br i1 %.not.i.i.i, label %7, label %_ZN4llvm23SmallVectorTemplateBaseINS_8RegisterELb1EE9push_backES1_.exit

7:                                                ; preds = %2
  %8 = getelementptr inbounds i8, ptr %0, i64 80
  tail call void @_ZN4llvm15SmallVectorBaseIjE8grow_podEPvmm(ptr noundef nonnull align 8 dereferenceable(16) %3, ptr noundef nonnull %8, i64 noundef %5, i64 noundef 4) #10
  br label %_ZN4llvm23SmallVectorTemplateBaseINS_8RegisterELb1EE9push_backES1_.exit

_ZN4llvm23SmallVectorTemplateBaseINS_8RegisterELb1EE9push_backES1_.exit: ; preds = %2, %7
  %9 = load ptr, ptr %3, align 8
  %10 = tail call noundef i64 @_ZNK4llvm15SmallVectorBaseIjE4sizeEv(ptr noundef nonnull align 8 dereferenceable(16) %3) #10
  %11 = getelementptr inbounds %"class.llvm::Register", ptr %9, i64 %10
  store i32 %1, ptr %11, align 1
  %12 = tail call noundef i64 @_ZNK4llvm15SmallVectorBaseIjE4sizeEv(ptr noundef nonnull align 8 dereferenceable(16) %3) #10
  %13 = add i64 %12, 1
  tail call void @_ZN4llvm15SmallVectorBaseIjE8set_sizeEm(ptr noundef nonnull align 8 dereferenceable(16) %3, i64 noundef %13) #10
  ret void
}